target datalayout = "e-m:e-p270:32:32-p271:32:32-p272:64:64-i64:64-i128:128-f80:128-n8:16:32:64-S128"
target triple = "x86_64-pc-linux-gnu"

%struct.HeapTupleData = type { i32, %struct.ItemPointerData, i32, ptr }
%struct.ItemPointerData = type { %struct.BlockIdData, i16 }
%struct.BlockIdData = type { i16, i16 }
%struct.HeapTupleHeaderData = type { %union.anon, %struct.ItemPointerData, i16, i16, i8, [0 x i8] }
%union.anon = type { %struct.HeapTupleFields }
%struct.HeapTupleFields = type { i32, i32, %union.anon.0 }
%union.anon.0 = type { i32 }
%struct.nameData = type { [64 x i8] }
%struct.FormData_pg_language = type { i32, %struct.nameData, i32, i8, i8, i32, i32, i32 }

@.str.1 = private unnamed_addr constant [12 x i8] c"lsyscache.c\00", align 1
@.str.6 = private unnamed_addr constant [36 x i8] c"cache lookup failed for language %u\00", align 1
@__func__.get_language_name = private unnamed_addr constant [18 x i8] c"get_language_name\00", align 1

; Function Attrs: inlinehint nounwind uwtable
define internal ptr @GETSTRUCT(ptr noundef %0) #2 {
  %2 = alloca ptr, align 8
  store ptr %0, ptr %2, align 8
  %3 = load ptr, ptr %2, align 8
  %4 = getelementptr inbounds nuw %struct.HeapTupleData, ptr %3, i32 0, i32 3
  %5 = load ptr, ptr %4, align 8
  %6 = load ptr, ptr %2, align 8
  %7 = getelementptr inbounds nuw %struct.HeapTupleData, ptr %6, i32 0, i32 3
  %8 = load ptr, ptr %7, align 8
  %9 = getelementptr inbounds nuw %struct.HeapTupleHeaderData, ptr %8, i32 0, i32 4
  %10 = load i8, ptr %9, align 2
  %11 = zext i8 %10 to i32
  %12 = sext i32 %11 to i64
  %13 = getelementptr inbounds i8, ptr %5, i64 %12
  ret ptr %13
}

; Function Attrs: inlinehint nounwind uwtable
define internal i64 @ObjectIdGetDatum(i32 noundef %0) #2 {
  %2 = alloca i32, align 4
  store i32 %0, ptr %2, align 4
  %3 = load i32, ptr %2, align 4
  %4 = zext i32 %3 to i64
  ret i64 %4
}

; Function Attrs: nounwind uwtable
define dso_local ptr @get_language_name(i32 noundef %0, i1 noundef zeroext %1) #0 {
  %3 = alloca ptr, align 8
  %4 = alloca i32, align 4
  %5 = alloca i8, align 1
  %6 = alloca ptr, align 8
  %7 = alloca ptr, align 8
  %8 = alloca ptr, align 8
  %9 = alloca i32, align 4
  store i32 %0, ptr %4, align 4
  %10 = zext i1 %1 to i8
  store i8 %10, ptr %5, align 1
  call void @llvm.lifetime.start.p0(i64 8, ptr %6) #7
  %11 = load i32, ptr %4, align 4
  %12 = call i64 @ObjectIdGetDatum(i32 noundef %11)
  %13 = call ptr @SearchSysCache1(i32 noundef 36, i64 noundef %12)
  store ptr %13, ptr %6, align 8
  %14 = load ptr, ptr %6, align 8
  %15 = icmp ne ptr %14, null
  br i1 %15, label %16, label %26

16:                                               ; preds = %2
  call void @llvm.lifetime.start.p0(i64 8, ptr %7) #7
  %17 = load ptr, ptr %6, align 8
  %18 = call ptr @GETSTRUCT(ptr noundef %17)
  store ptr %18, ptr %7, align 8
  call void @llvm.lifetime.start.p0(i64 8, ptr %8) #7
  %19 = load ptr, ptr %7, align 8
  %20 = getelementptr inbounds nuw %struct.FormData_pg_language, ptr %19, i32 0, i32 1
  %21 = getelementptr inbounds nuw %struct.nameData, ptr %20, i32 0, i32 0
  %22 = getelementptr inbounds [64 x i8], ptr %21, i64 0, i64 0
  %23 = call ptr @pstrdup(ptr noundef %22)
  store ptr %23, ptr %8, align 8
  %24 = load ptr, ptr %6, align 8
  call void @ReleaseSysCache(ptr noundef %24)
  %25 = load ptr, ptr %8, align 8
  store ptr %25, ptr %3, align 8
  store i32 1, ptr %9, align 4
  call void @llvm.lifetime.end.p0(i64 8, ptr %8) #7
  call void @llvm.lifetime.end.p0(i64 8, ptr %7) #7
  br label %42

26:                                               ; preds = %2
  %27 = load i8, ptr %5, align 1, !range !4, !noundef !5
  %28 = trunc i8 %27 to i1
  br i1 %28, label %41, label %29

29:                                               ; preds = %26
  br label %30

30:                                               ; preds = %29
  br i1 true, label %31, label %33

31:                                               ; preds = %30
  %32 = call zeroext i1 @errstart_cold(i32 noundef 21, ptr noundef null) #8
  br i1 %32, label %35, label %38

33:                                               ; preds = %30
  %34 = call zeroext i1 @errstart(i32 noundef 21, ptr noundef null)
  br i1 %34, label %35, label %38

35:                                               ; preds = %33, %31
  %36 = load i32, ptr %4, align 4
  %37 = call i32 (ptr, ...) @errmsg_internal(ptr noundef @.str.6, i32 noundef %36)
  call void @errfinish(ptr noundef @.str.1, i32 noundef 1179, ptr noundef @__func__.get_language_name)
  br label %38

38:                                               ; preds = %35, %33, %31
  unreachable

39:                                               ; No predecessors!
  br label %40

40:                                               ; preds = %39
  br label %41

41:                                               ; preds = %40, %26
  store ptr null, ptr %3, align 8
  store i32 1, ptr %9, align 4
  br label %42

42:                                               ; preds = %41, %16
  call void @llvm.lifetime.end.p0(i64 8, ptr %6) #7
  %43 = load ptr, ptr %3, align 8
  ret ptr %43
}