; Function Attrs: nounwind uwtable
define dso_local ptr @get_language_name(i32 noundef %0, i1 noundef zeroext %1) local_unnamed_addr #0 {
  %3 = zext i32 %0 to i64
  %4 = tail call ptr @SearchSysCache1(i32 noundef 36, i64 noundef %3) #8
  %.not = icmp eq ptr %4, null
  br i1 %.not, label %13, label %5

5:                                                ; preds = %2
  %6 = getelementptr i8, ptr %4, i64 16
  %.val = load ptr, ptr %6, align 8
  %7 = getelementptr inbounds nuw i8, ptr %.val, i64 22
  %8 = load i8, ptr %7, align 2
  %9 = zext i8 %8 to i64
  %10 = getelementptr inbounds nuw i8, ptr %.val, i64 %9
  %11 = getelementptr inbounds nuw i8, ptr %10, i64 4
  %12 = tail call ptr @pstrdup(ptr noundef nonnull %11) #8
  tail call void @ReleaseSysCache(ptr noundef nonnull %4) #8
  br label %17

13:                                               ; preds = %2
  br i1 %1, label %17, label %14

14:                                               ; preds = %13
  %15 = tail call zeroext i1 @errstart_cold(i32 noundef 21, ptr noundef null) #9
  tail call void @llvm.assume(i1 %15)
  %16 = tail call i32 (ptr, ...) @errmsg_internal(ptr noundef nonnull @.str.6, i32 noundef %0) #8
  tail call void @errfinish(ptr noundef nonnull @.str.1, i32 noundef 1179, ptr noundef nonnull @__func__.get_language_name) #8
  unreachable

17:                                               ; preds = %13, %5
  %.0 = phi ptr [ %12, %5 ], [ null, %13 ]
  ret ptr %.0
}